; Function Attrs: mustprogress nounwind uwtable
define void @_ZN3gmx12ForceElementD2Ev(ptr nocapture noundef nonnull align 8 dereferenceable(304) %0) unnamed_addr #2 align 2 personality ptr @__gxx_personality_v0 {
  %2 = getelementptr inbounds i8, ptr %0, i64 152
  %3 = load ptr, ptr %2, align 8
  %.not.i = icmp eq ptr %3, null
  br i1 %.not.i, label %_ZNSt10unique_ptrI24CpuPpLongRangeNonbondedsSt14default_deleteIS0_EED2Ev.exit, label %_ZNKSt14default_deleteI24CpuPpLongRangeNonbondedsEclEPS0_.exit.i

_ZNKSt14default_deleteI24CpuPpLongRangeNonbondedsEclEPS0_.exit.i: ; preds = %1
  tail call void @_ZN24CpuPpLongRangeNonbondedsD1Ev(ptr noundef nonnull align 8 dereferenceable(216) %3) #24
  tail call void @_ZdlPv(ptr noundef nonnull %3) #25
  br label %_ZNSt10unique_ptrI24CpuPpLongRangeNonbondedsSt14default_deleteIS0_EED2Ev.exit

_ZNSt10unique_ptrI24CpuPpLongRangeNonbondedsSt14default_deleteIS0_EED2Ev.exit: ; preds = %1, %_ZNKSt14default_deleteI24CpuPpLongRangeNonbondedsEclEPS0_.exit.i
  store ptr null, ptr %2, align 8
  ret void
}